target datalayout = "e-m:e-p270:32:32-p271:32:32-p272:64:64-i64:64-i128:128-f80:128-n8:16:32:64-S128"
target triple = "x86_64-pc-linux-gnu"

%"class.casadi::Sparsity" = type { %"class.casadi::SharedObject" }
%"class.casadi::SharedObject" = type { ptr }
%"class.std::__cxx11::basic_string" = type { %"struct.std::__cxx11::basic_string<char>::_Alloc_hider", i64, %union.anon }
%"struct.std::__cxx11::basic_string<char>::_Alloc_hider" = type { ptr }
%union.anon = type { i64, [8 x i8] }
%"class.casadi::MXNode" = type { %"class.casadi::SharedObjectInternal", i64, %"class.std::vector", %"class.casadi::Sparsity" }
%"class.casadi::SharedObjectInternal" = type { ptr, i64, ptr }
%"class.std::vector" = type { %"struct.std::_Vector_base" }
%"struct.std::_Vector_base" = type { %"struct.std::_Vector_base<casadi::MX, std::allocator<casadi::MX>>::_Vector_impl" }
%"struct.std::_Vector_base<casadi::MX, std::allocator<casadi::MX>>::_Vector_impl" = type { %"struct.std::_Vector_base<casadi::MX, std::allocator<casadi::MX>>::_Vector_impl_data" }
%"struct.std::_Vector_base<casadi::MX, std::allocator<casadi::MX>>::_Vector_impl_data" = type { ptr, ptr, ptr }
%"struct.std::_Vector_base.6" = type { %"struct.std::_Vector_base<std::__cxx11::basic_string<char>, std::allocator<std::__cxx11::basic_string<char>>>::_Vector_impl" }
%"struct.std::_Vector_base<std::__cxx11::basic_string<char>, std::allocator<std::__cxx11::basic_string<char>>>::_Vector_impl" = type { %"struct.std::_Vector_base<std::__cxx11::basic_string<char>, std::allocator<std::__cxx11::basic_string<char>>>::_Vector_impl_data" }
%"struct.std::_Vector_base<std::__cxx11::basic_string<char>, std::allocator<std::__cxx11::basic_string<char>>>::_Vector_impl_data" = type { ptr, ptr, ptr }

@.str = private unnamed_addr constant [7 x i8] c"dense(\00", align 1
@.str.1 = private unnamed_addr constant [2 x i8] c")\00", align 1
@.str.2 = private unnamed_addr constant [9 x i8] c"project(\00", align 1
@.str.10 = private unnamed_addr constant [74 x i8] c"vector::_M_range_check: __n (which is %zu) >= this->size() (which is %zu)\00", align 1

; Function Attrs: mustprogress nounwind uwtable
define linkonce_odr hidden noundef i64 @_ZNKSt6vectorINSt7__cxx1112basic_stringIcSt11char_traitsIcESaIcEEESaIS5_EE4sizeEv(ptr noundef nonnull align 8 dereferenceable(24) %0) #5 comdat align 2 {
  %2 = alloca ptr, align 8
  store ptr %0, ptr %2, align 8
  %3 = load ptr, ptr %2, align 8
  %4 = getelementptr inbounds %"struct.std::_Vector_base.6", ptr %3, i32 0, i32 0
  %5 = getelementptr inbounds %"struct.std::_Vector_base<std::__cxx11::basic_string<char>, std::allocator<std::__cxx11::basic_string<char>>>::_Vector_impl_data", ptr %4, i32 0, i32 1
  %6 = load ptr, ptr %5, align 8
  %7 = getelementptr inbounds %"struct.std::_Vector_base.6", ptr %3, i32 0, i32 0
  %8 = getelementptr inbounds %"struct.std::_Vector_base<std::__cxx11::basic_string<char>, std::allocator<std::__cxx11::basic_string<char>>>::_Vector_impl_data", ptr %7, i32 0, i32 0
  %9 = load ptr, ptr %8, align 8
  %10 = ptrtoint ptr %6 to i64
  %11 = ptrtoint ptr %9 to i64
  %12 = sub i64 %10, %11
  %13 = sdiv exact i64 %12, 32
  ret i64 %13
}

; Function Attrs: mustprogress nounwind uwtable
define linkonce_odr hidden noundef nonnull align 8 dereferenceable(32) ptr @_ZNKSt6vectorINSt7__cxx1112basic_stringIcSt11char_traitsIcESaIcEEESaIS5_EEixEm(ptr noundef nonnull align 8 dereferenceable(24) %0, i64 noundef %1) #5 comdat align 2 {
  %3 = alloca ptr, align 8
  %4 = alloca i64, align 8
  store ptr %0, ptr %3, align 8
  store i64 %1, ptr %4, align 8
  %5 = load ptr, ptr %3, align 8
  %6 = getelementptr inbounds %"struct.std::_Vector_base.6", ptr %5, i32 0, i32 0
  %7 = getelementptr inbounds %"struct.std::_Vector_base<std::__cxx11::basic_string<char>, std::allocator<std::__cxx11::basic_string<char>>>::_Vector_impl_data", ptr %6, i32 0, i32 0
  %8 = load ptr, ptr %7, align 8
  %9 = load i64, ptr %4, align 8
  %10 = getelementptr inbounds %"class.std::__cxx11::basic_string", ptr %8, i64 %9
  ret ptr %10
}

; Function Attrs: mustprogress uwtable
define linkonce_odr hidden void @_ZNKSt6vectorINSt7__cxx1112basic_stringIcSt11char_traitsIcESaIcEEESaIS5_EE14_M_range_checkEm(ptr noundef nonnull align 8 dereferenceable(24) %0, i64 noundef %1) #4 comdat align 2 {
  %3 = alloca ptr, align 8
  %4 = alloca i64, align 8
  store ptr %0, ptr %3, align 8
  store i64 %1, ptr %4, align 8
  %5 = load ptr, ptr %3, align 8
  %6 = load i64, ptr %4, align 8
  %7 = call noundef i64 @_ZNKSt6vectorINSt7__cxx1112basic_stringIcSt11char_traitsIcESaIcEEESaIS5_EE4sizeEv(ptr noundef nonnull align 8 dereferenceable(24) %5) #3
  %8 = icmp uge i64 %6, %7
  br i1 %8, label %9, label %12

9:                                                ; preds = %2
  %10 = load i64, ptr %4, align 8
  %11 = call noundef i64 @_ZNKSt6vectorINSt7__cxx1112basic_stringIcSt11char_traitsIcESaIcEEESaIS5_EE4sizeEv(ptr noundef nonnull align 8 dereferenceable(24) %5) #3
  call void (ptr, ...) @_ZSt24__throw_out_of_range_fmtPKcz(ptr noundef @.str.10, i64 noundef %10, i64 noundef %11) #12
  unreachable

12:                                               ; preds = %2
  ret void
}

; Function Attrs: mustprogress uwtable
define linkonce_odr void @_ZStplIcSt11char_traitsIcESaIcEENSt7__cxx1112basic_stringIT_T0_T1_EEOS8_PKS5_(ptr dead_on_unwind noalias writable sret(%"class.std::__cxx11::basic_string") align 8 %0, ptr noundef nonnull align 8 dereferenceable(32) %1, ptr noundef %2) #4 comdat {
  %4 = alloca ptr, align 8
  %5 = alloca ptr, align 8
  %6 = alloca ptr, align 8
  store ptr %0, ptr %4, align 8
  store ptr %1, ptr %5, align 8
  store ptr %2, ptr %6, align 8
  %7 = load ptr, ptr %5, align 8
  %8 = load ptr, ptr %6, align 8
  %9 = call noundef nonnull align 8 dereferenceable(32) ptr @_ZNSt7__cxx1112basic_stringIcSt11char_traitsIcESaIcEE6appendEPKc(ptr noundef nonnull align 8 dereferenceable(32) %7, ptr noundef %8)
  call void @_ZNSt7__cxx1112basic_stringIcSt11char_traitsIcESaIcEEC1EOS4_(ptr noundef nonnull align 8 dereferenceable(32) %0, ptr noundef nonnull align 8 dereferenceable(32) %9) #3
  ret void
}

; Function Attrs: mustprogress uwtable
define linkonce_odr hidden noundef nonnull align 8 dereferenceable(32) ptr @_ZNKSt6vectorINSt7__cxx1112basic_stringIcSt11char_traitsIcESaIcEEESaIS5_EE2atEm(ptr noundef nonnull align 8 dereferenceable(24) %0, i64 noundef %1) #4 comdat align 2 {
  %3 = alloca ptr, align 8
  %4 = alloca i64, align 8
  store ptr %0, ptr %3, align 8
  store i64 %1, ptr %4, align 8
  %5 = load ptr, ptr %3, align 8
  %6 = load i64, ptr %4, align 8
  call void @_ZNKSt6vectorINSt7__cxx1112basic_stringIcSt11char_traitsIcESaIcEEESaIS5_EE14_M_range_checkEm(ptr noundef nonnull align 8 dereferenceable(24) %5, i64 noundef %6)
  %7 = load i64, ptr %4, align 8
  %8 = call noundef nonnull align 8 dereferenceable(32) ptr @_ZNKSt6vectorINSt7__cxx1112basic_stringIcSt11char_traitsIcESaIcEEESaIS5_EEixEm(ptr noundef nonnull align 8 dereferenceable(24) %5, i64 noundef %7) #3
  ret ptr %8
}

; Function Attrs: mustprogress nounwind uwtable
define linkonce_odr hidden noundef nonnull align 8 dereferenceable(8) ptr @_ZNK6casadi6MXNode8sparsityEv(ptr noundef nonnull align 8 dereferenceable(64) %0) #5 comdat align 2 {
  %2 = alloca ptr, align 8
  store ptr %0, ptr %2, align 8
  %3 = load ptr, ptr %2, align 8
  %4 = getelementptr inbounds %"class.casadi::MXNode", ptr %3, i32 0, i32 3
  ret ptr %4
}

; Function Attrs: mustprogress uwtable
define void @_ZNK6casadi7Project4dispERKSt6vectorINSt7__cxx1112basic_stringIcSt11char_traitsIcESaIcEEESaIS7_EE(ptr dead_on_unwind noalias writable sret(%"class.std::__cxx11::basic_string") align 8 %0, ptr noundef nonnull align 8 dereferenceable(64) %1, ptr noundef nonnull align 8 dereferenceable(24) %2) unnamed_addr #4 align 2 personality ptr @__gxx_personality_v0 {
  %4 = alloca ptr, align 8
  %5 = alloca ptr, align 8
  %6 = alloca ptr, align 8
  %7 = alloca %"class.std::__cxx11::basic_string", align 8
  %8 = alloca ptr, align 8
  %9 = alloca i32, align 4
  %10 = alloca %"class.std::__cxx11::basic_string", align 8
  store ptr %0, ptr %4, align 8
  store ptr %1, ptr %5, align 8
  store ptr %2, ptr %6, align 8
  %11 = load ptr, ptr %5, align 8
  %12 = call noundef nonnull align 8 dereferenceable(8) ptr @_ZNK6casadi6MXNode8sparsityEv(ptr noundef nonnull align 8 dereferenceable(64) %11)
  %13 = call noundef zeroext i1 @_ZNK6casadi8Sparsity8is_denseEv(ptr noundef nonnull align 8 dereferenceable(8) %12)
  br i1 %13, label %14, label %22

14:                                               ; preds = %3
  %15 = load ptr, ptr %6, align 8
  %16 = call noundef nonnull align 8 dereferenceable(32) ptr @_ZNKSt6vectorINSt7__cxx1112basic_stringIcSt11char_traitsIcESaIcEEESaIS5_EE2atEm(ptr noundef nonnull align 8 dereferenceable(24) %15, i64 noundef 0)
  call void @_ZStplIcSt11char_traitsIcESaIcEENSt7__cxx1112basic_stringIT_T0_T1_EEPKS5_RKS8_(ptr dead_on_unwind writable sret(%"class.std::__cxx11::basic_string") align 8 %7, ptr noundef @.str, ptr noundef nonnull align 8 dereferenceable(32) %16)
  invoke void @_ZStplIcSt11char_traitsIcESaIcEENSt7__cxx1112basic_stringIT_T0_T1_EEOS8_PKS5_(ptr dead_on_unwind writable sret(%"class.std::__cxx11::basic_string") align 8 %0, ptr noundef nonnull align 8 dereferenceable(32) %7, ptr noundef @.str.1)
          to label %17 unwind label %18

17:                                               ; preds = %14
  call void @_ZNSt7__cxx1112basic_stringIcSt11char_traitsIcESaIcEED1Ev(ptr noundef nonnull align 8 dereferenceable(32) %7) #3
  br label %30

18:                                               ; preds = %14
  %19 = landingpad { ptr, i32 }
          cleanup
  %20 = extractvalue { ptr, i32 } %19, 0
  store ptr %20, ptr %8, align 8
  %21 = extractvalue { ptr, i32 } %19, 1
  store i32 %21, ptr %9, align 4
  call void @_ZNSt7__cxx1112basic_stringIcSt11char_traitsIcESaIcEED1Ev(ptr noundef nonnull align 8 dereferenceable(32) %7) #3
  br label %31

22:                                               ; preds = %3
  %23 = load ptr, ptr %6, align 8
  %24 = call noundef nonnull align 8 dereferenceable(32) ptr @_ZNKSt6vectorINSt7__cxx1112basic_stringIcSt11char_traitsIcESaIcEEESaIS5_EE2atEm(ptr noundef nonnull align 8 dereferenceable(24) %23, i64 noundef 0)
  call void @_ZStplIcSt11char_traitsIcESaIcEENSt7__cxx1112basic_stringIT_T0_T1_EEPKS5_RKS8_(ptr dead_on_unwind writable sret(%"class.std::__cxx11::basic_string") align 8 %10, ptr noundef @.str.2, ptr noundef nonnull align 8 dereferenceable(32) %24)
  invoke void @_ZStplIcSt11char_traitsIcESaIcEENSt7__cxx1112basic_stringIT_T0_T1_EEOS8_PKS5_(ptr dead_on_unwind writable sret(%"class.std::__cxx11::basic_string") align 8 %0, ptr noundef nonnull align 8 dereferenceable(32) %10, ptr noundef @.str.1)
          to label %25 unwind label %26

25:                                               ; preds = %22
  call void @_ZNSt7__cxx1112basic_stringIcSt11char_traitsIcESaIcEED1Ev(ptr noundef nonnull align 8 dereferenceable(32) %10) #3
  br label %30

26:                                               ; preds = %22
  %27 = landingpad { ptr, i32 }
          cleanup
  %28 = extractvalue { ptr, i32 } %27, 0
  store ptr %28, ptr %8, align 8
  %29 = extractvalue { ptr, i32 } %27, 1
  store i32 %29, ptr %9, align 4
  call void @_ZNSt7__cxx1112basic_stringIcSt11char_traitsIcESaIcEED1Ev(ptr noundef nonnull align 8 dereferenceable(32) %10) #3
  br label %31

30:                                               ; preds = %25, %17
  ret void

31:                                               ; preds = %26, %18
  %32 = load ptr, ptr %8, align 8
  %33 = load i32, ptr %9, align 4
  %34 = insertvalue { ptr, i32 } poison, ptr %32, 0
  %35 = insertvalue { ptr, i32 } %34, i32 %33, 1
  resume { ptr, i32 } %35
}